target datalayout = "e-m:e-p270:32:32-p271:32:32-p272:64:64-i64:64-i128:128-f80:128-n8:16:32:64-S128"
target triple = "x86_64-pc-linux-gnu"

%struct.slurm_ops_t = type { ptr, ptr, ptr, ptr, ptr, ptr, ptr, ptr, ptr, ptr, ptr, ptr, ptr, ptr, ptr, ptr, ptr, ptr, ptr, ptr, ptr, ptr, ptr }

@plugin_inited = internal global i32 0, align 4
@ops = internal global %struct.slurm_ops_t zeroinitializer, align 8

; Function Attrs: nounwind uwtable
define dso_local i32 @cgroup_g_step_get_pids(ptr noundef %0, ptr noundef %1) #0 {
  %3 = alloca i32, align 4
  %4 = alloca ptr, align 8
  %5 = alloca ptr, align 8
  store ptr %0, ptr %4, align 8
  store ptr %1, ptr %5, align 8
  %6 = load i32, ptr @plugin_inited, align 4
  %7 = icmp eq i32 %6, 1
  br i1 %7, label %8, label %11

8:                                                ; preds = %2
  %9 = load ptr, ptr %5, align 8
  store i32 0, ptr %9, align 4
  %10 = load ptr, ptr %4, align 8
  store ptr null, ptr %10, align 8
  store i32 0, ptr %3, align 4
  br label %16

11:                                               ; preds = %2
  %12 = load ptr, ptr getelementptr inbounds nuw (%struct.slurm_ops_t, ptr @ops, i32 0, i32 6), align 8
  %13 = load ptr, ptr %4, align 8
  %14 = load ptr, ptr %5, align 8
  %15 = call i32 %12(ptr noundef %13, ptr noundef %14)
  store i32 %15, ptr %3, align 4
  br label %16

16:                                               ; preds = %11, %8
  %17 = load i32, ptr %3, align 4
  ret i32 %17
}