; Function Attrs: nounwind uwtable
define dso_local i32 @cgroup_g_step_get_pids(ptr noundef %0, ptr noundef %1) local_unnamed_addr #0 {
  %3 = load i32, ptr @plugin_inited, align 4
  %4 = icmp eq i32 %3, 1
  br i1 %4, label %5, label %6

5:                                                ; preds = %2
  store i32 0, ptr %1, align 4
  store ptr null, ptr %0, align 8
  br label %9

6:                                                ; preds = %2
  %7 = load ptr, ptr getelementptr inbounds nuw (i8, ptr @ops, i64 48), align 8
  %8 = tail call i32 %7(ptr noundef %0, ptr noundef %1) #12
  br label %9

9:                                                ; preds = %6, %5
  %.0 = phi i32 [ 0, %5 ], [ %8, %6 ]
  ret i32 %.0
}